; Function Attrs: mustprogress uwtable
define hidden noundef zeroext i1 @_ZN6google8protobuf8compiler3cpp20HasStringPieceFieldsEPKNS0_14FileDescriptorERKNS2_7OptionsE(ptr nocapture noundef readonly %file, ptr nocapture noundef nonnull readnone align 8 dereferenceable(206) %options) local_unnamed_addr #4 {
entry:
  %message_type_count_.i = getelementptr inbounds i8, ptr %file, i64 60
  %0 = load i32, ptr %message_type_count_.i, align 4
  %cmp4 = icmp sgt i32 %0, 0
  br i1 %cmp4, label %for.body.lr.ph, label %return

for.body.lr.ph:                                   ; preds = %entry
  %message_types_.i = getelementptr inbounds i8, ptr %file, i64 96
  br label %for.body

for.cond:                                         ; preds = %for.body
  %indvars.iv.next = add nuw nsw i64 %indvars.iv, 1
  %1 = load i32, ptr %message_type_count_.i, align 4
  %2 = sext i32 %1 to i64
  %cmp = icmp slt i64 %indvars.iv.next, %2
  br i1 %cmp, label %for.body, label %return, !llvm.loop !163

for.body:                                         ; preds = %for.body.lr.ph, %for.cond
  %indvars.iv = phi i64 [ 0, %for.body.lr.ph ], [ %indvars.iv.next, %for.cond ]
  %3 = load ptr, ptr %message_types_.i, align 8
  %add.ptr.i = getelementptr inbounds %"class.google::protobuf::Descriptor", ptr %3, i64 %indvars.iv
  %call2 = tail call fastcc noundef zeroext i1 @_ZN6google8protobuf8compiler3cppL20HasStringPieceFieldsEPKNS0_10DescriptorERKNS2_7OptionsE(ptr noundef %add.ptr.i)
  br i1 %call2, label %return, label %for.cond

return:                                           ; preds = %for.body, %for.cond, %entry
  %cmp.lcssa = phi i1 [ false, %entry ], [ %call2, %for.cond ], [ %call2, %for.body ]
  ret i1 %cmp.lcssa
}